; Function Attrs: nounwind uwtable
define void @Str_MuxStructCollect_rec(ptr noundef %0, ptr noundef %1, ptr noundef %2) local_unnamed_addr #0 {
  %4 = load i64, ptr %1, align 4
  %5 = and i64 %4, 1073741824
  %.not = icmp eq i64 %5, 0
  br i1 %.not, label %52, label %6

6:                                                ; preds = %3
  %7 = and i64 %4, 536870911
  %8 = sub nsw i64 0, %7
  %9 = getelementptr inbounds %struct.Gia_Obj_t_, ptr %1, i64 %8
  tail call void @Str_MuxStructCollect_rec(ptr noundef %0, ptr noundef nonnull %9, ptr noundef %2)
  %10 = load i64, ptr %1, align 4
  %11 = lshr i64 %10, 32
  %12 = and i64 %11, 536870911
  %13 = sub nsw i64 0, %12
  %14 = getelementptr inbounds %struct.Gia_Obj_t_, ptr %1, i64 %13
  tail call void @Str_MuxStructCollect_rec(ptr noundef %0, ptr noundef nonnull %14, ptr noundef %2)
  %15 = getelementptr i8, ptr %0, i64 32
  %.val = load ptr, ptr %15, align 8, !tbaa !46
  %16 = ptrtoint ptr %1 to i64
  %17 = ptrtoint ptr %.val to i64
  %18 = sub i64 %16, %17
  %19 = sdiv exact i64 %18, 12
  %20 = trunc i64 %19 to i32
  %21 = getelementptr inbounds nuw i8, ptr %2, i64 4
  %22 = load i32, ptr %21, align 4, !tbaa !45
  %23 = load i32, ptr %2, align 8, !tbaa !47
  %24 = icmp eq i32 %22, %23
  br i1 %24, label %25, label %.Vec_IntGrow.exit10_crit_edge.i

.Vec_IntGrow.exit10_crit_edge.i:                  ; preds = %6
  %.phi.trans.insert.i = getelementptr inbounds nuw i8, ptr %2, i64 8
  %.pre.i = load ptr, ptr %.phi.trans.insert.i, align 8, !tbaa !36
  br label %Vec_IntPush.exit

25:                                               ; preds = %6
  %26 = icmp slt i32 %22, 16
  br i1 %26, label %27, label %35

27:                                               ; preds = %25
  %28 = getelementptr inbounds nuw i8, ptr %2, i64 8
  %29 = load ptr, ptr %28, align 8, !tbaa !36
  %.not9.i.i = icmp eq ptr %29, null
  br i1 %.not9.i.i, label %32, label %30

30:                                               ; preds = %27
  %31 = tail call dereferenceable_or_null(64) ptr @realloc(ptr noundef nonnull %29, i64 noundef 64) #29
  br label %Vec_IntGrow.exit.i

32:                                               ; preds = %27
  %33 = tail call noalias dereferenceable_or_null(64) ptr @malloc(i64 noundef 64) #28
  br label %Vec_IntGrow.exit.i

Vec_IntGrow.exit.i:                               ; preds = %32, %30
  %34 = phi ptr [ %31, %30 ], [ %33, %32 ]
  store ptr %34, ptr %28, align 8, !tbaa !36
  store i32 16, ptr %2, align 8, !tbaa !47
  br label %Vec_IntPush.exit

35:                                               ; preds = %25
  %36 = shl nuw nsw i32 %22, 1
  %37 = getelementptr inbounds nuw i8, ptr %2, i64 8
  %38 = load ptr, ptr %37, align 8, !tbaa !36
  %.not9.i9.i = icmp eq ptr %38, null
  %39 = zext nneg i32 %36 to i64
  %40 = shl nuw nsw i64 %39, 2
  br i1 %.not9.i9.i, label %43, label %41

41:                                               ; preds = %35
  %42 = tail call ptr @realloc(ptr noundef nonnull %38, i64 noundef %40) #29
  br label %45

43:                                               ; preds = %35
  %44 = tail call noalias ptr @malloc(i64 noundef %40) #28
  br label %45

45:                                               ; preds = %43, %41
  %46 = phi ptr [ %42, %41 ], [ %44, %43 ]
  store ptr %46, ptr %37, align 8, !tbaa !36
  store i32 %36, ptr %2, align 8, !tbaa !47
  br label %Vec_IntPush.exit

Vec_IntPush.exit:                                 ; preds = %.Vec_IntGrow.exit10_crit_edge.i, %Vec_IntGrow.exit.i, %45
  %47 = phi ptr [ %.pre.i, %.Vec_IntGrow.exit10_crit_edge.i ], [ %46, %45 ], [ %34, %Vec_IntGrow.exit.i ]
  %48 = load i32, ptr %21, align 4, !tbaa !45
  %49 = add nsw i32 %48, 1
  store i32 %49, ptr %21, align 4, !tbaa !45
  %50 = sext i32 %48 to i64
  %51 = getelementptr inbounds i32, ptr %47, i64 %50
  store i32 %20, ptr %51, align 4, !tbaa !38
  br label %52

52:                                               ; preds = %3, %Vec_IntPush.exit
  ret void
}